
bootloader.elf:     file format elf32-avr

Sections:
Idx Name          Size      VMA       LMA       File off  Algn
  0 .data         0000001a  00800100  00007c1c  000004b0  2**0
                  CONTENTS, ALLOC, LOAD, DATA
  1 .text         0000041c  00007800  00007800  00000094  2**1
                  CONTENTS, ALLOC, LOAD, READONLY, CODE
  2 .bss          00000084  0080011a  0080011a  000004ca  2**0
                  ALLOC
  3 .stab         000013b0  00000000  00000000  000004cc  2**2
                  CONTENTS, READONLY, DEBUGGING
  4 .stabstr      00001208  00000000  00000000  0000187c  2**0
                  CONTENTS, READONLY, DEBUGGING
  5 .comment      00000011  00000000  00000000  00002a84  2**0
                  CONTENTS, READONLY
  6 .note.gnu.avr.deviceinfo 00000040  00000000  00000000  00002a98  2**2
                  CONTENTS, READONLY, OCTETS
  7 .debug_info   000008ea  00000000  00000000  00002ad8  2**0
                  CONTENTS, READONLY, DEBUGGING, OCTETS
  8 .debug_abbrev 0000086e  00000000  00000000  000033c2  2**0
                  CONTENTS, READONLY, DEBUGGING, OCTETS
  9 .debug_line   000001a6  00000000  00000000  00003c30  2**0
                  CONTENTS, READONLY, DEBUGGING, OCTETS
 10 .debug_str    00000318  00000000  00000000  00003dd6  2**0
                  CONTENTS, READONLY, DEBUGGING, OCTETS

Disassembly of section .text:

00007800 <__vectors>:
    7800:	59 c0       	rjmp	.+178    	; 0x78b4 <__ctors_end>
    7802:	00 00       	nop
    7804:	78 c0       	rjmp	.+240    	; 0x78f6 <__bad_interrupt>
    7806:	00 00       	nop
    7808:	76 c0       	rjmp	.+236    	; 0x78f6 <__bad_interrupt>
    780a:	00 00       	nop
    780c:	74 c0       	rjmp	.+232    	; 0x78f6 <__bad_interrupt>
    780e:	00 00       	nop
    7810:	72 c0       	rjmp	.+228    	; 0x78f6 <__bad_interrupt>
    7812:	00 00       	nop
    7814:	70 c0       	rjmp	.+224    	; 0x78f6 <__bad_interrupt>
    7816:	00 00       	nop
    7818:	6e c0       	rjmp	.+220    	; 0x78f6 <__bad_interrupt>
    781a:	00 00       	nop
    781c:	6c c0       	rjmp	.+216    	; 0x78f6 <__bad_interrupt>
    781e:	00 00       	nop
    7820:	6a c0       	rjmp	.+212    	; 0x78f6 <__bad_interrupt>
    7822:	00 00       	nop
    7824:	68 c0       	rjmp	.+208    	; 0x78f6 <__bad_interrupt>
    7826:	00 00       	nop
    7828:	66 c0       	rjmp	.+204    	; 0x78f6 <__bad_interrupt>
    782a:	00 00       	nop
    782c:	64 c0       	rjmp	.+200    	; 0x78f6 <__bad_interrupt>
    782e:	00 00       	nop
    7830:	62 c0       	rjmp	.+196    	; 0x78f6 <__bad_interrupt>
    7832:	00 00       	nop
    7834:	60 c0       	rjmp	.+192    	; 0x78f6 <__bad_interrupt>
    7836:	00 00       	nop
    7838:	5e c0       	rjmp	.+188    	; 0x78f6 <__bad_interrupt>
    783a:	00 00       	nop
    783c:	5c c0       	rjmp	.+184    	; 0x78f6 <__bad_interrupt>
    783e:	00 00       	nop
    7840:	9a c1       	rjmp	.+820    	; 0x7b76 <__vector_16>
    7842:	00 00       	nop
    7844:	58 c0       	rjmp	.+176    	; 0x78f6 <__bad_interrupt>
    7846:	00 00       	nop
    7848:	56 c0       	rjmp	.+172    	; 0x78f6 <__bad_interrupt>
    784a:	00 00       	nop
    784c:	54 c0       	rjmp	.+168    	; 0x78f6 <__bad_interrupt>
    784e:	00 00       	nop
    7850:	52 c0       	rjmp	.+164    	; 0x78f6 <__bad_interrupt>
    7852:	00 00       	nop
    7854:	50 c0       	rjmp	.+160    	; 0x78f6 <__bad_interrupt>
    7856:	00 00       	nop
    7858:	4e c0       	rjmp	.+156    	; 0x78f6 <__bad_interrupt>
    785a:	00 00       	nop
    785c:	4c c0       	rjmp	.+152    	; 0x78f6 <__bad_interrupt>
    785e:	00 00       	nop
    7860:	4a c0       	rjmp	.+148    	; 0x78f6 <__bad_interrupt>
    7862:	00 00       	nop
    7864:	48 c0       	rjmp	.+144    	; 0x78f6 <__bad_interrupt>
    7866:	00 00       	nop
    7868:	46 c0       	rjmp	.+140    	; 0x78f6 <__bad_interrupt>
    786a:	00 00       	nop
    786c:	44 c0       	rjmp	.+136    	; 0x78f6 <__bad_interrupt>
    786e:	00 00       	nop
    7870:	42 c0       	rjmp	.+132    	; 0x78f6 <__bad_interrupt>
    7872:	00 00       	nop
    7874:	40 c0       	rjmp	.+128    	; 0x78f6 <__bad_interrupt>
    7876:	00 00       	nop
    7878:	3e c0       	rjmp	.+124    	; 0x78f6 <__bad_interrupt>
    787a:	00 00       	nop
    787c:	3c c0       	rjmp	.+120    	; 0x78f6 <__bad_interrupt>
    787e:	00 00       	nop
    7880:	3a c0       	rjmp	.+116    	; 0x78f6 <__bad_interrupt>
    7882:	00 00       	nop
    7884:	38 c0       	rjmp	.+112    	; 0x78f6 <__bad_interrupt>
    7886:	00 00       	nop
    7888:	36 c0       	rjmp	.+108    	; 0x78f6 <__bad_interrupt>
    788a:	00 00       	nop
    788c:	34 c0       	rjmp	.+104    	; 0x78f6 <__bad_interrupt>
    788e:	00 00       	nop
    7890:	32 c0       	rjmp	.+100    	; 0x78f6 <__bad_interrupt>
    7892:	00 00       	nop
    7894:	30 c0       	rjmp	.+96     	; 0x78f6 <__bad_interrupt>
    7896:	00 00       	nop
    7898:	2e c0       	rjmp	.+92     	; 0x78f6 <__bad_interrupt>
    789a:	00 00       	nop
    789c:	2c c0       	rjmp	.+88     	; 0x78f6 <__bad_interrupt>
    789e:	00 00       	nop
    78a0:	2b c0       	rjmp	.+86     	; 0x78f8 <__vector_40>
    78a2:	00 00       	nop
    78a4:	28 c0       	rjmp	.+80     	; 0x78f6 <__bad_interrupt>
    78a6:	00 00       	nop
    78a8:	26 c0       	rjmp	.+76     	; 0x78f6 <__bad_interrupt>
    78aa:	00 00       	nop
    78ac:	24 c0       	rjmp	.+72     	; 0x78f6 <__bad_interrupt>
    78ae:	00 00       	nop
    78b0:	22 c0       	rjmp	.+68     	; 0x78f6 <__bad_interrupt>
	...

000078b4 <__ctors_end>:
    78b4:	11 24       	eor	r1, r1
    78b6:	1f be       	out	0x3f, r1	; 63
    78b8:	cf ef       	ldi	r28, 0xFF	; 255
    78ba:	d8 e0       	ldi	r29, 0x08	; 8
    78bc:	de bf       	out	0x3e, r29	; 62
    78be:	cd bf       	out	0x3d, r28	; 61

000078c0 <disable_wdt_timer>:
    78c0:	14 be       	out	0x34, r1	; 52
    78c2:	e0 e6       	ldi	r30, 0x60	; 96
    78c4:	f0 e0       	ldi	r31, 0x00	; 0
    78c6:	88 e1       	ldi	r24, 0x18	; 24
    78c8:	80 83       	st	Z, r24
    78ca:	10 82       	st	Z, r1

000078cc <__do_copy_data>:
    78cc:	11 e0       	ldi	r17, 0x01	; 1
    78ce:	a0 e0       	ldi	r26, 0x00	; 0
    78d0:	b1 e0       	ldi	r27, 0x01	; 1
    78d2:	ec e1       	ldi	r30, 0x1C	; 28
    78d4:	fc e7       	ldi	r31, 0x7C	; 124
    78d6:	02 c0       	rjmp	.+4      	; 0x78dc <__do_copy_data+0x10>
    78d8:	05 90       	lpm	r0, Z+
    78da:	0d 92       	st	X+, r0
    78dc:	aa 31       	cpi	r26, 0x1A	; 26
    78de:	b1 07       	cpc	r27, r17
    78e0:	d9 f7       	brne	.-10     	; 0x78d8 <__do_copy_data+0xc>

000078e2 <__do_clear_bss>:
    78e2:	21 e0       	ldi	r18, 0x01	; 1
    78e4:	aa e1       	ldi	r26, 0x1A	; 26
    78e6:	b1 e0       	ldi	r27, 0x01	; 1
    78e8:	01 c0       	rjmp	.+2      	; 0x78ec <.do_clear_bss_start>

000078ea <.do_clear_bss_loop>:
    78ea:	1d 92       	st	X+, r1

000078ec <.do_clear_bss_start>:
    78ec:	ae 39       	cpi	r26, 0x9E	; 158
    78ee:	b2 07       	cpc	r27, r18
    78f0:	e1 f7       	brne	.-8      	; 0x78ea <.do_clear_bss_loop>
    78f2:	59 d1       	rcall	.+690    	; 0x7ba6 <main>
    78f4:	91 c1       	rjmp	.+802    	; 0x7c18 <_exit>

000078f6 <__bad_interrupt>:
    78f6:	84 cf       	rjmp	.-248    	; 0x7800 <__vectors>

000078f8 <__vector_40>:
    78f8:	0f 92       	push	r0
    78fa:	0f b6       	in	r0, 0x3f	; 63
    78fc:	0f 92       	push	r0
    78fe:	1f 92       	push	r1
    7900:	11 24       	eor	r1, r1
    7902:	2f 93       	push	r18
    7904:	3f 93       	push	r19
    7906:	4f 93       	push	r20
    7908:	5f 93       	push	r21
    790a:	6f 93       	push	r22
    790c:	8f 93       	push	r24
    790e:	9f 93       	push	r25
    7910:	af 93       	push	r26
    7912:	bf 93       	push	r27
    7914:	ef 93       	push	r30
    7916:	ff 93       	push	r31
    7918:	80 91 d9 00 	lds	r24, 0x00D9	; 0x8000d9 <__TEXT_REGION_LENGTH__+0x7f80d9>
    791c:	88 7f       	andi	r24, 0xF8	; 248
    791e:	88 3a       	cpi	r24, 0xA8	; 168
    7920:	09 f4       	brne	.+2      	; 0x7924 <__vector_40+0x2c>
    7922:	e8 c0       	rjmp	.+464    	; 0x7af4 <__vector_40+0x1fc>
    7924:	b8 f4       	brcc	.+46     	; 0x7954 <__vector_40+0x5c>
    7926:	80 38       	cpi	r24, 0x80	; 128
    7928:	a9 f1       	breq	.+106    	; 0x7994 <__vector_40+0x9c>
    792a:	80 3a       	cpi	r24, 0xA0	; 160
    792c:	09 f4       	brne	.+2      	; 0x7930 <__vector_40+0x38>
    792e:	1d c1       	rjmp	.+570    	; 0x7b6a <__vector_40+0x272>
    7930:	80 36       	cpi	r24, 0x60	; 96
    7932:	49 f1       	breq	.+82     	; 0x7986 <__vector_40+0x8e>
    7934:	ff 91       	pop	r31
    7936:	ef 91       	pop	r30
    7938:	bf 91       	pop	r27
    793a:	af 91       	pop	r26
    793c:	9f 91       	pop	r25
    793e:	8f 91       	pop	r24
    7940:	6f 91       	pop	r22
    7942:	5f 91       	pop	r21
    7944:	4f 91       	pop	r20
    7946:	3f 91       	pop	r19
    7948:	2f 91       	pop	r18
    794a:	1f 90       	pop	r1
    794c:	0f 90       	pop	r0
    794e:	0f be       	out	0x3f, r0	; 63
    7950:	0f 90       	pop	r0
    7952:	18 95       	reti
    7954:	80 3c       	cpi	r24, 0xC0	; 192
    7956:	09 f4       	brne	.+2      	; 0x795a <__vector_40+0x62>
    7958:	08 c1       	rjmp	.+528    	; 0x7b6a <__vector_40+0x272>
    795a:	88 3f       	cpi	r24, 0xF8	; 248
    795c:	09 f4       	brne	.+2      	; 0x7960 <__vector_40+0x68>
    795e:	07 c1       	rjmp	.+526    	; 0x7b6e <__vector_40+0x276>
    7960:	88 3b       	cpi	r24, 0xB8	; 184
    7962:	41 f7       	brne	.-48     	; 0x7934 <__vector_40+0x3c>
    7964:	80 91 9d 01 	lds	r24, 0x019D	; 0x80019d <cmd>
    7968:	82 32       	cpi	r24, 0x22	; 34
    796a:	09 f4       	brne	.+2      	; 0x796e <__vector_40+0x76>
    796c:	f2 c0       	rjmp	.+484    	; 0x7b52 <__vector_40+0x25a>
    796e:	08 f0       	brcs	.+2      	; 0x7972 <__vector_40+0x7a>
    7970:	c5 c0       	rjmp	.+394    	; 0x7afc <__vector_40+0x204>
    7972:	81 30       	cpi	r24, 0x01	; 1
    7974:	09 f4       	brne	.+2      	; 0x7978 <__vector_40+0x80>
    7976:	d7 c0       	rjmp	.+430    	; 0x7b26 <__vector_40+0x22e>
    7978:	82 31       	cpi	r24, 0x12	; 18
    797a:	09 f4       	brne	.+2      	; 0x797e <__vector_40+0x86>
    797c:	e0 c0       	rjmp	.+448    	; 0x7b3e <__vector_40+0x246>
    797e:	ef ef       	ldi	r30, 0xFF	; 255
    7980:	e0 93 db 00 	sts	0x00DB, r30	; 0x8000db <__TEXT_REGION_LENGTH__+0x7f80db>
    7984:	03 c0       	rjmp	.+6      	; 0x798c <__vector_40+0x94>
    7986:	10 92 1a 01 	sts	0x011A, r1	; 0x80011a <bcnt.2091>
    798a:	73 98       	cbi	0x0e, 3	; 14
    798c:	80 91 dc 00 	lds	r24, 0x00DC	; 0x8000dc <__TEXT_REGION_LENGTH__+0x7f80dc>
    7990:	80 6c       	ori	r24, 0xC0	; 192
    7992:	40 c0       	rjmp	.+128    	; 0x7a14 <__vector_40+0x11c>
    7994:	80 91 db 00 	lds	r24, 0x00DB	; 0x8000db <__TEXT_REGION_LENGTH__+0x7f80db>
    7998:	90 91 1a 01 	lds	r25, 0x011A	; 0x80011a <bcnt.2091>
    799c:	91 30       	cpi	r25, 0x01	; 1
    799e:	09 f4       	brne	.+2      	; 0x79a2 <__vector_40+0xaa>
    79a0:	42 c0       	rjmp	.+132    	; 0x7a26 <__vector_40+0x12e>
    79a2:	30 f1       	brcs	.+76     	; 0x79f0 <__vector_40+0xf8>
    79a4:	2e ef       	ldi	r18, 0xFE	; 254
    79a6:	29 0f       	add	r18, r25
    79a8:	22 30       	cpi	r18, 0x02	; 2
    79aa:	08 f4       	brcc	.+2      	; 0x79ae <__vector_40+0xb6>
    79ac:	58 c0       	rjmp	.+176    	; 0x7a5e <__vector_40+0x166>
    79ae:	20 91 9d 01 	lds	r18, 0x019D	; 0x80019d <cmd>
    79b2:	22 32       	cpi	r18, 0x22	; 34
    79b4:	09 f4       	brne	.+2      	; 0x79b8 <__vector_40+0xc0>
    79b6:	5f c0       	rjmp	.+190    	; 0x7a76 <__vector_40+0x17e>
    79b8:	22 33       	cpi	r18, 0x32	; 50
    79ba:	d9 f5       	brne	.+118    	; 0x7a32 <__vector_40+0x13a>
    79bc:	90 91 1b 01 	lds	r25, 0x011B	; 0x80011b <addr>
    79c0:	91 bd       	out	0x21, r25	; 33
    79c2:	90 91 1c 01 	lds	r25, 0x011C	; 0x80011c <addr+0x1>
    79c6:	92 bd       	out	0x22, r25	; 34
    79c8:	80 bd       	out	0x20, r24	; 32
    79ca:	80 91 1b 01 	lds	r24, 0x011B	; 0x80011b <addr>
    79ce:	90 91 1c 01 	lds	r25, 0x011C	; 0x80011c <addr+0x1>
    79d2:	01 96       	adiw	r24, 0x01	; 1
    79d4:	90 93 1c 01 	sts	0x011C, r25	; 0x80011c <addr+0x1>
    79d8:	80 93 1b 01 	sts	0x011B, r24	; 0x80011b <addr>
    79dc:	fa 9a       	sbi	0x1f, 2	; 31
    79de:	f9 9a       	sbi	0x1f, 1	; 31
    79e0:	f9 99       	sbic	0x1f, 1	; 31
    79e2:	fe cf       	rjmp	.-4      	; 0x79e0 <__vector_40+0xe8>
    79e4:	80 91 1a 01 	lds	r24, 0x011A	; 0x80011a <bcnt.2091>
    79e8:	8f 5f       	subi	r24, 0xFF	; 255
    79ea:	80 93 1a 01 	sts	0x011A, r24	; 0x80011a <bcnt.2091>
    79ee:	0d c0       	rjmp	.+26     	; 0x7a0a <__vector_40+0x112>
    79f0:	88 23       	and	r24, r24
    79f2:	39 f0       	breq	.+14     	; 0x7a02 <__vector_40+0x10a>
    79f4:	9f ef       	ldi	r25, 0xFF	; 255
    79f6:	98 0f       	add	r25, r24
    79f8:	92 30       	cpi	r25, 0x02	; 2
    79fa:	78 f4       	brcc	.+30     	; 0x7a1a <__vector_40+0x122>
    79fc:	91 e0       	ldi	r25, 0x01	; 1
    79fe:	90 93 1a 01 	sts	0x011A, r25	; 0x80011a <bcnt.2091>
    7a02:	10 92 00 01 	sts	0x0100, r1	; 0x800100 <boot_timeout>
    7a06:	80 93 9d 01 	sts	0x019D, r24	; 0x80019d <cmd>
    7a0a:	80 e4       	ldi	r24, 0x40	; 64
    7a0c:	90 91 dc 00 	lds	r25, 0x00DC	; 0x8000dc <__TEXT_REGION_LENGTH__+0x7f80dc>
    7a10:	89 2b       	or	r24, r25
    7a12:	80 68       	ori	r24, 0x80	; 128
    7a14:	80 93 dc 00 	sts	0x00DC, r24	; 0x8000dc <__TEXT_REGION_LENGTH__+0x7f80dc>
    7a18:	8d cf       	rjmp	.-230    	; 0x7934 <__vector_40+0x3c>
    7a1a:	91 e2       	ldi	r25, 0x21	; 33
    7a1c:	90 93 9d 01 	sts	0x019D, r25	; 0x80019d <cmd>
    7a20:	80 93 9d 01 	sts	0x019D, r24	; 0x80019d <cmd>
    7a24:	06 c0       	rjmp	.+12     	; 0x7a32 <__vector_40+0x13a>
    7a26:	90 91 9d 01 	lds	r25, 0x019D	; 0x80019d <cmd>
    7a2a:	91 30       	cpi	r25, 0x01	; 1
    7a2c:	31 f0       	breq	.+12     	; 0x7a3a <__vector_40+0x142>
    7a2e:	92 30       	cpi	r25, 0x02	; 2
    7a30:	41 f0       	breq	.+16     	; 0x7a42 <__vector_40+0x14a>
    7a32:	10 92 1a 01 	sts	0x011A, r1	; 0x80011a <bcnt.2091>
    7a36:	80 e0       	ldi	r24, 0x00	; 0
    7a38:	e9 cf       	rjmp	.-46     	; 0x7a0c <__vector_40+0x114>
    7a3a:	80 38       	cpi	r24, 0x80	; 128
    7a3c:	d1 f7       	brne	.-12     	; 0x7a32 <__vector_40+0x13a>
    7a3e:	81 e2       	ldi	r24, 0x21	; 33
    7a40:	ef cf       	rjmp	.-34     	; 0x7a20 <__vector_40+0x128>
    7a42:	90 93 1a 01 	sts	0x011A, r25	; 0x80011a <bcnt.2091>
    7a46:	81 11       	cpse	r24, r1
    7a48:	02 c0       	rjmp	.+4      	; 0x7a4e <__vector_40+0x156>
    7a4a:	82 e1       	ldi	r24, 0x12	; 18
    7a4c:	dc cf       	rjmp	.-72     	; 0x7a06 <__vector_40+0x10e>
    7a4e:	81 30       	cpi	r24, 0x01	; 1
    7a50:	11 f4       	brne	.+4      	; 0x7a56 <__vector_40+0x15e>
    7a52:	82 e2       	ldi	r24, 0x22	; 34
    7a54:	d8 cf       	rjmp	.-80     	; 0x7a06 <__vector_40+0x10e>
    7a56:	82 30       	cpi	r24, 0x02	; 2
    7a58:	61 f7       	brne	.-40     	; 0x7a32 <__vector_40+0x13a>
    7a5a:	82 e3       	ldi	r24, 0x32	; 50
    7a5c:	d4 cf       	rjmp	.-88     	; 0x7a06 <__vector_40+0x10e>
    7a5e:	20 e0       	ldi	r18, 0x00	; 0
    7a60:	30 91 1b 01 	lds	r19, 0x011B	; 0x80011b <addr>
    7a64:	28 2b       	or	r18, r24
    7a66:	30 93 1c 01 	sts	0x011C, r19	; 0x80011c <addr+0x1>
    7a6a:	20 93 1b 01 	sts	0x011B, r18	; 0x80011b <addr>
    7a6e:	9f 5f       	subi	r25, 0xFF	; 255
    7a70:	90 93 1a 01 	sts	0x011A, r25	; 0x80011a <bcnt.2091>
    7a74:	ca cf       	rjmp	.-108    	; 0x7a0a <__vector_40+0x112>
    7a76:	e9 2f       	mov	r30, r25
    7a78:	f0 e0       	ldi	r31, 0x00	; 0
    7a7a:	e7 5e       	subi	r30, 0xE7	; 231
    7a7c:	fe 4f       	sbci	r31, 0xFE	; 254
    7a7e:	80 83       	st	Z, r24
    7a80:	93 38       	cpi	r25, 0x83	; 131
    7a82:	a8 f3       	brcs	.-22     	; 0x7a6e <__vector_40+0x176>
    7a84:	80 91 1b 01 	lds	r24, 0x011B	; 0x80011b <addr>
    7a88:	90 91 1c 01 	lds	r25, 0x011C	; 0x80011c <addr+0x1>
    7a8c:	81 15       	cp	r24, r1
    7a8e:	28 e7       	ldi	r18, 0x78	; 120
    7a90:	92 07       	cpc	r25, r18
    7a92:	78 f6       	brcc	.-98     	; 0x7a32 <__vector_40+0x13a>
    7a94:	23 e0       	ldi	r18, 0x03	; 3
    7a96:	fc 01       	movw	r30, r24
    7a98:	20 93 57 00 	sts	0x0057, r18	; 0x800057 <__TEXT_REGION_LENGTH__+0x7f8057>
    7a9c:	e8 95       	spm
    7a9e:	07 b6       	in	r0, 0x37	; 55
    7aa0:	00 fc       	sbrc	r0, 0
    7aa2:	fd cf       	rjmp	.-6      	; 0x7a9e <__vector_40+0x1a6>
    7aa4:	ad e1       	ldi	r26, 0x1D	; 29
    7aa6:	b1 e0       	ldi	r27, 0x01	; 1
    7aa8:	4d e9       	ldi	r20, 0x9D	; 157
    7aaa:	51 e0       	ldi	r21, 0x01	; 1
    7aac:	fc 01       	movw	r30, r24
    7aae:	61 e0       	ldi	r22, 0x01	; 1
    7ab0:	2c 91       	ld	r18, X
    7ab2:	11 96       	adiw	r26, 0x01	; 1
    7ab4:	3c 91       	ld	r19, X
    7ab6:	11 97       	sbiw	r26, 0x01	; 1
    7ab8:	09 01       	movw	r0, r18
    7aba:	60 93 57 00 	sts	0x0057, r22	; 0x800057 <__TEXT_REGION_LENGTH__+0x7f8057>
    7abe:	e8 95       	spm
    7ac0:	11 24       	eor	r1, r1
    7ac2:	32 96       	adiw	r30, 0x02	; 2
    7ac4:	12 96       	adiw	r26, 0x02	; 2
    7ac6:	4a 17       	cp	r20, r26
    7ac8:	5b 07       	cpc	r21, r27
    7aca:	91 f7       	brne	.-28     	; 0x7ab0 <__vector_40+0x1b8>
    7acc:	9c 01       	movw	r18, r24
    7ace:	20 58       	subi	r18, 0x80	; 128
    7ad0:	3f 4f       	sbci	r19, 0xFF	; 255
    7ad2:	30 93 1c 01 	sts	0x011C, r19	; 0x80011c <addr+0x1>
    7ad6:	20 93 1b 01 	sts	0x011B, r18	; 0x80011b <addr>
    7ada:	25 e0       	ldi	r18, 0x05	; 5
    7adc:	fc 01       	movw	r30, r24
    7ade:	20 93 57 00 	sts	0x0057, r18	; 0x800057 <__TEXT_REGION_LENGTH__+0x7f8057>
    7ae2:	e8 95       	spm
    7ae4:	07 b6       	in	r0, 0x37	; 55
    7ae6:	00 fc       	sbrc	r0, 0
    7ae8:	fd cf       	rjmp	.-6      	; 0x7ae4 <__vector_40+0x1ec>
    7aea:	81 e1       	ldi	r24, 0x11	; 17
    7aec:	80 93 57 00 	sts	0x0057, r24	; 0x800057 <__TEXT_REGION_LENGTH__+0x7f8057>
    7af0:	e8 95       	spm
    7af2:	9f cf       	rjmp	.-194    	; 0x7a32 <__vector_40+0x13a>
    7af4:	10 92 1a 01 	sts	0x011A, r1	; 0x80011a <bcnt.2091>
    7af8:	73 98       	cbi	0x0e, 3	; 14
    7afa:	34 cf       	rjmp	.-408    	; 0x7964 <__vector_40+0x6c>
    7afc:	82 33       	cpi	r24, 0x32	; 50
    7afe:	09 f0       	breq	.+2      	; 0x7b02 <__vector_40+0x20a>
    7b00:	3e cf       	rjmp	.-388    	; 0x797e <__vector_40+0x86>
    7b02:	80 91 1b 01 	lds	r24, 0x011B	; 0x80011b <addr>
    7b06:	81 bd       	out	0x21, r24	; 33
    7b08:	80 91 1c 01 	lds	r24, 0x011C	; 0x80011c <addr+0x1>
    7b0c:	82 bd       	out	0x22, r24	; 34
    7b0e:	f8 9a       	sbi	0x1f, 0	; 31
    7b10:	80 91 1b 01 	lds	r24, 0x011B	; 0x80011b <addr>
    7b14:	90 91 1c 01 	lds	r25, 0x011C	; 0x80011c <addr+0x1>
    7b18:	01 96       	adiw	r24, 0x01	; 1
    7b1a:	90 93 1c 01 	sts	0x011C, r25	; 0x80011c <addr+0x1>
    7b1e:	80 93 1b 01 	sts	0x011B, r24	; 0x80011b <addr>
    7b22:	e0 b5       	in	r30, 0x20	; 32
    7b24:	2d cf       	rjmp	.-422    	; 0x7980 <__vector_40+0x88>
    7b26:	80 91 1a 01 	lds	r24, 0x011A	; 0x80011a <bcnt.2091>
    7b2a:	e8 2f       	mov	r30, r24
    7b2c:	f0 e0       	ldi	r31, 0x00	; 0
    7b2e:	e7 5f       	subi	r30, 0xF7	; 247
    7b30:	fe 4f       	sbci	r31, 0xFE	; 254
    7b32:	e0 81       	ld	r30, Z
    7b34:	8f 5f       	subi	r24, 0xFF	; 255
    7b36:	8f 70       	andi	r24, 0x0F	; 15
    7b38:	80 93 1a 01 	sts	0x011A, r24	; 0x80011a <bcnt.2091>
    7b3c:	21 cf       	rjmp	.-446    	; 0x7980 <__vector_40+0x88>
    7b3e:	80 91 1a 01 	lds	r24, 0x011A	; 0x80011a <bcnt.2091>
    7b42:	e8 2f       	mov	r30, r24
    7b44:	f0 e0       	ldi	r31, 0x00	; 0
    7b46:	ef 5f       	subi	r30, 0xFF	; 255
    7b48:	fe 4f       	sbci	r31, 0xFE	; 254
    7b4a:	e0 81       	ld	r30, Z
    7b4c:	8f 5f       	subi	r24, 0xFF	; 255
    7b4e:	87 70       	andi	r24, 0x07	; 7
    7b50:	f3 cf       	rjmp	.-26     	; 0x7b38 <__vector_40+0x240>
    7b52:	e0 91 1b 01 	lds	r30, 0x011B	; 0x80011b <addr>
    7b56:	f0 91 1c 01 	lds	r31, 0x011C	; 0x80011c <addr+0x1>
    7b5a:	cf 01       	movw	r24, r30
    7b5c:	01 96       	adiw	r24, 0x01	; 1
    7b5e:	90 93 1c 01 	sts	0x011C, r25	; 0x80011c <addr+0x1>
    7b62:	80 93 1b 01 	sts	0x011B, r24	; 0x80011b <addr>
    7b66:	e4 91       	lpm	r30, Z
    7b68:	0b cf       	rjmp	.-490    	; 0x7980 <__vector_40+0x88>
    7b6a:	73 9a       	sbi	0x0e, 3	; 14
    7b6c:	0f cf       	rjmp	.-482    	; 0x798c <__vector_40+0x94>
    7b6e:	80 91 dc 00 	lds	r24, 0x00DC	; 0x8000dc <__TEXT_REGION_LENGTH__+0x7f80dc>
    7b72:	80 6d       	ori	r24, 0xD0	; 208
    7b74:	4f cf       	rjmp	.-354    	; 0x7a14 <__vector_40+0x11c>

00007b76 <__vector_16>:
    7b76:	8f 93       	push	r24
    7b78:	8f b7       	in	r24, 0x3f	; 63
    7b7a:	8f 93       	push	r24
    7b7c:	8c e3       	ldi	r24, 0x3C	; 60
    7b7e:	86 bd       	out	0x26, r24	; 38
    7b80:	88 e0       	ldi	r24, 0x08	; 8
    7b82:	8c b9       	out	0x0c, r24	; 12
    7b84:	80 91 00 01 	lds	r24, 0x0100	; 0x800100 <boot_timeout>
    7b88:	82 30       	cpi	r24, 0x02	; 2
    7b8a:	38 f0       	brcs	.+14     	; 0x7b9a <__vector_16+0x24>
    7b8c:	81 50       	subi	r24, 0x01	; 1
    7b8e:	80 93 00 01 	sts	0x0100, r24	; 0x800100 <boot_timeout>
    7b92:	8f 91       	pop	r24
    7b94:	8f bf       	out	0x3f, r24	; 63
    7b96:	8f 91       	pop	r24
    7b98:	18 95       	reti
    7b9a:	81 30       	cpi	r24, 0x01	; 1
    7b9c:	d1 f7       	brne	.-12     	; 0x7b92 <__vector_16+0x1c>
    7b9e:	81 e2       	ldi	r24, 0x21	; 33
    7ba0:	80 93 9d 01 	sts	0x019D, r24	; 0x80019d <cmd>
    7ba4:	f6 cf       	rjmp	.-20     	; 0x7b92 <__vector_16+0x1c>

00007ba6 <main>:
    7ba6:	2c d0       	rcall	.+88     	; 0x7c00 <port_init>
    7ba8:	6b 9a       	sbi	0x0d, 3	; 13
    7baa:	73 98       	cbi	0x0e, 3	; 14
    7bac:	81 e0       	ldi	r24, 0x01	; 1
    7bae:	85 bf       	out	0x35, r24	; 53
    7bb0:	92 e0       	ldi	r25, 0x02	; 2
    7bb2:	95 bf       	out	0x35, r25	; 53
    7bb4:	95 e0       	ldi	r25, 0x05	; 5
    7bb6:	95 bd       	out	0x25, r25	; 37
    7bb8:	80 93 6e 00 	sts	0x006E, r24	; 0x80006e <__TEXT_REGION_LENGTH__+0x7f806e>
    7bbc:	80 e1       	ldi	r24, 0x10	; 16
    7bbe:	80 93 da 00 	sts	0x00DA, r24	; 0x8000da <__TEXT_REGION_LENGTH__+0x7f80da>
    7bc2:	85 e4       	ldi	r24, 0x45	; 69
    7bc4:	80 93 dc 00 	sts	0x00DC, r24	; 0x8000dc <__TEXT_REGION_LENGTH__+0x7f80dc>
    7bc8:	78 94       	sei
    7bca:	80 91 9d 01 	lds	r24, 0x019D	; 0x80019d <cmd>
    7bce:	81 32       	cpi	r24, 0x21	; 33
    7bd0:	e1 f7       	brne	.-8      	; 0x7bca <main+0x24>
    7bd2:	f8 94       	cli
    7bd4:	10 92 dc 00 	sts	0x00DC, r1	; 0x8000dc <__TEXT_REGION_LENGTH__+0x7f80dc>
    7bd8:	10 92 6e 00 	sts	0x006E, r1	; 0x80006e <__TEXT_REGION_LENGTH__+0x7f806e>
    7bdc:	15 bc       	out	0x25, r1	; 37
    7bde:	81 e0       	ldi	r24, 0x01	; 1
    7be0:	85 bf       	out	0x35, r24	; 53
    7be2:	15 be       	out	0x35, r1	; 53
    7be4:	73 9a       	sbi	0x0e, 3	; 14
    7be6:	f0 e0       	ldi	r31, 0x00	; 0
    7be8:	e0 e0       	ldi	r30, 0x00	; 0
    7bea:	00 00       	nop
    7bec:	31 97       	sbiw	r30, 0x01	; 1
    7bee:	e9 f7       	brne	.-6      	; 0x7bea <main+0x44>
    7bf0:	09 95       	icall

00007bf2 <I2C_0_initialization>:
    7bf2:	3d 9a       	sbi	0x07, 5	; 7
    7bf4:	45 98       	cbi	0x08, 5	; 8
    7bf6:	45 98       	cbi	0x08, 5	; 8
    7bf8:	3c 9a       	sbi	0x07, 4	; 7
    7bfa:	44 98       	cbi	0x08, 4	; 8
    7bfc:	44 98       	cbi	0x08, 4	; 8
    7bfe:	08 95       	ret

00007c00 <port_init>:
    7c00:	f8 df       	rcall	.-16     	; 0x7bf2 <I2C_0_initialization>
    7c02:	26 98       	cbi	0x04, 6	; 4
    7c04:	2e 98       	cbi	0x05, 6	; 5
    7c06:	39 98       	cbi	0x07, 1	; 7
    7c08:	41 98       	cbi	0x08, 1	; 8
    7c0a:	53 98       	cbi	0x0a, 3	; 10
    7c0c:	5b 98       	cbi	0x0b, 3	; 11
    7c0e:	55 98       	cbi	0x0a, 5	; 10
    7c10:	5d 98       	cbi	0x0b, 5	; 11
    7c12:	6b 9a       	sbi	0x0d, 3	; 13
    7c14:	73 9a       	sbi	0x0e, 3	; 14
    7c16:	08 95       	ret

00007c18 <_exit>:
    7c18:	f8 94       	cli

00007c1a <__stop_program>:
    7c1a:	ff cf       	rjmp	.-2      	; 0x7c1a <__stop_program>
